(dp0
S'reglog_l2'
p1
(dp2
I1
(lp3
cnumpy.core.multiarray
scalar
p4
(cnumpy
dtype
p5
(S'f8'
p6
I0
I1
tp7
Rp8
(I3
S'<'
p9
NNNI-1
I-1
I0
tp10
bS'\xd6V\xc3U\x99\x9e\xdf?'
p11
tp12
Rp13
aF18.25888991355896
ass.