(dp0
S'reglog_l2'
p1
(dp2
I1
(lp3
cnumpy.core.multiarray
scalar
p4
(cnumpy
dtype
p5
(S'f8'
p6
I0
I1
tp7
Rp8
(I3
S'<'
p9
NNNI-1
I-1
I0
tp10
bS'\xe9!\xe1\x15q\x12\xe1?'
p11
tp12
Rp13
aF13.735079050064087
ass.